; Function Attrs: mustprogress uwtable
define dso_local void @_ZN6mygame7MonsterC2EPN6google8protobuf5ArenaE(ptr noundef nonnull align 8 dereferenceable(112) %this, ptr noundef %arena) unnamed_addr #3 align 2 personality ptr @__gxx_personality_v0 {
invoke.cont:
  %_internal_metadata_.i.i = getelementptr inbounds i8, ptr %this, i64 8
  store ptr %arena, ptr %_internal_metadata_.i.i, align 8
  store ptr getelementptr inbounds ({ [22 x ptr] }, ptr @_ZTVN6mygame7MonsterE, i64 0, i32 0, i64 2), ptr %this, align 8
  %weapons_ = getelementptr inbounds i8, ptr %this, i64 16
  store ptr %arena, ptr %weapons_, align 8
  %current_size_.i.i = getelementptr inbounds i8, ptr %this, i64 24
  tail call void @llvm.memset.p0.i64(ptr noundef nonnull align 8 dereferenceable(16) %current_size_.i.i, i8 0, i64 16, i1 false)
  %path_ = getelementptr inbounds i8, ptr %this, i64 40
  store ptr %arena, ptr %path_, align 8
  %current_size_.i.i5 = getelementptr inbounds i8, ptr %this, i64 48
  tail call void @llvm.memset.p0.i64(ptr noundef nonnull align 8 dereferenceable(16) %current_size_.i.i5, i8 0, i64 16, i1 false)
  %_cached_size_ = getelementptr inbounds i8, ptr %this, i64 108
  store i32 0, ptr %_cached_size_, align 4
  %0 = load atomic i32, ptr @scc_info_Monster_data_5fdef_2eproto acquire, align 8
  %cmp.not.i.i = icmp eq i32 %0, 0
  br i1 %cmp.not.i.i, label %invoke.cont5, label %if.then.i.i

if.then.i.i:                                      ; preds = %invoke.cont
  invoke void @_ZN6google8protobuf8internal11InitSCCImplEPNS1_11SCCInfoBaseE(ptr noundef nonnull @scc_info_Monster_data_5fdef_2eproto)
          to label %invoke.cont5 unwind label %lpad4

invoke.cont5:                                     ; preds = %invoke.cont, %if.then.i.i
  %name_.i = getelementptr inbounds i8, ptr %this, i64 64
  store ptr @_ZN6google8protobuf8internal26fixed_address_empty_stringB5cxx11E, ptr %name_.i, align 8
  %inventory_.i = getelementptr inbounds i8, ptr %this, i64 72
  store ptr @_ZN6google8protobuf8internal26fixed_address_empty_stringB5cxx11E, ptr %inventory_.i, align 8
  %pos_.i = getelementptr inbounds i8, ptr %this, i64 80
  tail call void @llvm.memset.p0.i64(ptr noundef nonnull align 8 dereferenceable(28) %pos_.i, i8 0, i64 28, i1 false)
  ret void

lpad4:                                            ; preds = %if.then.i.i
  %1 = landingpad { ptr, i32 }
          cleanup
  invoke void @_ZN6google8protobuf8internal20RepeatedPtrFieldBase7DestroyINS0_16RepeatedPtrFieldIN6mygame4Vec3EE11TypeHandlerEEEvv(ptr noundef nonnull align 8 dereferenceable(24) %path_)
          to label %_ZN6google8protobuf16RepeatedPtrFieldIN6mygame4Vec3EED2Ev.exit unwind label %terminate.lpad.i

terminate.lpad.i:                                 ; preds = %lpad4
  %2 = landingpad { ptr, i32 }
          catch ptr null
  %3 = extractvalue { ptr, i32 } %2, 0
  tail call void @__clang_call_terminate(ptr %3) #21
  unreachable

_ZN6google8protobuf16RepeatedPtrFieldIN6mygame4Vec3EED2Ev.exit: ; preds = %lpad4
  tail call void @_ZN6google8protobuf16RepeatedPtrFieldIN6mygame6WeaponEED2Ev(ptr noundef nonnull align 8 dereferenceable(24) %weapons_) #22
  resume { ptr, i32 } %1
}